ARM GAS  C:\Users\ADMINI~1\AppData\Local\Temp\ccrmH9ij.s 			page 1


   1              		.cpu cortex-m3
   2              		.eabi_attribute 20, 1
   3              		.eabi_attribute 21, 1
   4              		.eabi_attribute 23, 3
   5              		.eabi_attribute 24, 1
   6              		.eabi_attribute 25, 1
   7              		.eabi_attribute 26, 1
   8              		.eabi_attribute 30, 1
   9              		.eabi_attribute 34, 1
  10              		.eabi_attribute 18, 4
  11              		.file	"bsp_dht21.c"
  12              		.text
  13              	.Ltext0:
  14              		.cfi_sections	.debug_frame
  15              		.section	.text.goToOutput,"ax",%progbits
  16              		.align	1
  17              		.arch armv7-m
  18              		.syntax unified
  19              		.thumb
  20              		.thumb_func
  21              		.fpu softvfp
  23              	goToOutput:
  24              	.LFB65:
  25              		.file 1 "Core/Src/bsp_dht21.c"
   1:Core/Src/bsp_dht21.c **** #include "bsp_dht21.h"
   2:Core/Src/bsp_dht21.c ****  
   3:Core/Src/bsp_dht21.c ****  
   4:Core/Src/bsp_dht21.c **** 
   5:Core/Src/bsp_dht21.c **** #define lineDown() 	HAL_GPIO_WritePin(DHT_Port, DHT_Pin, GPIO_PIN_RESET)
   6:Core/Src/bsp_dht21.c **** #define lineUp()		HAL_GPIO_WritePin(DHT_Port, DHT_Pin, GPIO_PIN_SET)
   7:Core/Src/bsp_dht21.c **** #define getLine()		(HAL_GPIO_ReadPin(DHT_Port, DHT_Pin) == GPIO_PIN_SET)
   8:Core/Src/bsp_dht21.c **** #define Delay(d)		HAL_Delay(d)
   9:Core/Src/bsp_dht21.c **** 
  10:Core/Src/bsp_dht21.c **** static void goToOutput(void) {
  26              		.loc 1 10 30 view -0
  27              		.cfi_startproc
  28              		@ args = 0, pretend = 0, frame = 16
  29              		@ frame_needed = 0, uses_anonymous_args = 0
  30 0000 30B5     		push	{r4, r5, lr}
  31              	.LCFI0:
  32              		.cfi_def_cfa_offset 12
  33              		.cfi_offset 4, -12
  34              		.cfi_offset 5, -8
  35              		.cfi_offset 14, -4
  36 0002 85B0     		sub	sp, sp, #20
  37              	.LCFI1:
  38              		.cfi_def_cfa_offset 32
  11:Core/Src/bsp_dht21.c **** 	GPIO_InitTypeDef GPIO_InitStruct = {0};
  39              		.loc 1 11 2 view .LVU1
  40              		.loc 1 11 19 is_stmt 0 view .LVU2
  41 0004 0024     		movs	r4, #0
  42 0006 0094     		str	r4, [sp]
  43 0008 0194     		str	r4, [sp, #4]
  44 000a 0294     		str	r4, [sp, #8]
  45 000c 0394     		str	r4, [sp, #12]
  12:Core/Src/bsp_dht21.c **** 
  13:Core/Src/bsp_dht21.c ****   //?? ????????? ?? ????? ??????? ???????
ARM GAS  C:\Users\ADMINI~1\AppData\Local\Temp\ccrmH9ij.s 			page 2


  14:Core/Src/bsp_dht21.c ****   HAL_GPIO_WritePin(DHT_Port, DHT_Pin, GPIO_PIN_SET);
  46              		.loc 1 14 3 is_stmt 1 view .LVU3
  47 000e 0A4D     		ldr	r5, .L3
  48 0010 0122     		movs	r2, #1
  49 0012 4FF40041 		mov	r1, #32768
  50 0016 2846     		mov	r0, r5
  51 0018 FFF7FEFF 		bl	HAL_GPIO_WritePin
  52              	.LVL0:
  15:Core/Src/bsp_dht21.c **** 
  16:Core/Src/bsp_dht21.c ****   //????????? ????? ?? ????? 
  17:Core/Src/bsp_dht21.c ****   GPIO_InitStruct.Pin = DHT_Pin;
  53              		.loc 1 17 3 view .LVU4
  54              		.loc 1 17 23 is_stmt 0 view .LVU5
  55 001c 4FF40043 		mov	r3, #32768
  56 0020 0093     		str	r3, [sp]
  18:Core/Src/bsp_dht21.c ****   GPIO_InitStruct.Mode = GPIO_MODE_OUTPUT_OD;  
  57              		.loc 1 18 3 is_stmt 1 view .LVU6
  58              		.loc 1 18 24 is_stmt 0 view .LVU7
  59 0022 1123     		movs	r3, #17
  60 0024 0193     		str	r3, [sp, #4]
  19:Core/Src/bsp_dht21.c **** 	#if DHT_PullUp == 1
  20:Core/Src/bsp_dht21.c ****   GPIO_InitStruct.Pull = GPIO_PULLUP;						//???????? ? ???????
  21:Core/Src/bsp_dht21.c **** 	#else 
  22:Core/Src/bsp_dht21.c ****   GPIO_InitStruct.Pull = GPIO_NOPULL;						 
  61              		.loc 1 22 3 is_stmt 1 view .LVU8
  62              		.loc 1 22 24 is_stmt 0 view .LVU9
  63 0026 0294     		str	r4, [sp, #8]
  23:Core/Src/bsp_dht21.c **** 	#endif
  24:Core/Src/bsp_dht21.c ****   GPIO_InitStruct.Speed = GPIO_SPEED_FREQ_HIGH;  
  64              		.loc 1 24 3 is_stmt 1 view .LVU10
  65              		.loc 1 24 25 is_stmt 0 view .LVU11
  66 0028 0323     		movs	r3, #3
  67 002a 0393     		str	r3, [sp, #12]
  25:Core/Src/bsp_dht21.c ****   HAL_GPIO_Init(DHT_Port, &GPIO_InitStruct);
  68              		.loc 1 25 3 is_stmt 1 view .LVU12
  69 002c 6946     		mov	r1, sp
  70 002e 2846     		mov	r0, r5
  71 0030 FFF7FEFF 		bl	HAL_GPIO_Init
  72              	.LVL1:
  26:Core/Src/bsp_dht21.c **** }
  73              		.loc 1 26 1 is_stmt 0 view .LVU13
  74 0034 05B0     		add	sp, sp, #20
  75              	.LCFI2:
  76              		.cfi_def_cfa_offset 12
  77              		@ sp needed
  78 0036 30BD     		pop	{r4, r5, pc}
  79              	.L4:
  80              		.align	2
  81              	.L3:
  82 0038 00140140 		.word	1073812480
  83              		.cfi_endproc
  84              	.LFE65:
  86              		.section	.text.goToInput,"ax",%progbits
  87              		.align	1
  88              		.syntax unified
  89              		.thumb
  90              		.thumb_func
ARM GAS  C:\Users\ADMINI~1\AppData\Local\Temp\ccrmH9ij.s 			page 3


  91              		.fpu softvfp
  93              	goToInput:
  94              	.LFB66:
  27:Core/Src/bsp_dht21.c **** 
  28:Core/Src/bsp_dht21.c **** static void goToInput(void) {
  95              		.loc 1 28 29 is_stmt 1 view -0
  96              		.cfi_startproc
  97              		@ args = 0, pretend = 0, frame = 16
  98              		@ frame_needed = 0, uses_anonymous_args = 0
  99 0000 00B5     		push	{lr}
 100              	.LCFI3:
 101              		.cfi_def_cfa_offset 4
 102              		.cfi_offset 14, -4
 103 0002 85B0     		sub	sp, sp, #20
 104              	.LCFI4:
 105              		.cfi_def_cfa_offset 24
  29:Core/Src/bsp_dht21.c ****   GPIO_InitTypeDef GPIO_InitStruct = {0};
 106              		.loc 1 29 3 view .LVU15
 107              		.loc 1 29 20 is_stmt 0 view .LVU16
 108 0004 0023     		movs	r3, #0
 109 0006 0393     		str	r3, [sp, #12]
  30:Core/Src/bsp_dht21.c **** 
  31:Core/Src/bsp_dht21.c ****   //????????? ????? ?? ???? 
  32:Core/Src/bsp_dht21.c ****   GPIO_InitStruct.Pin = DHT_Pin;
 110              		.loc 1 32 3 is_stmt 1 view .LVU17
 111              		.loc 1 32 23 is_stmt 0 view .LVU18
 112 0008 4FF40042 		mov	r2, #32768
 113 000c 0092     		str	r2, [sp]
  33:Core/Src/bsp_dht21.c ****   GPIO_InitStruct.Mode = GPIO_MODE_INPUT;
 114              		.loc 1 33 3 is_stmt 1 view .LVU19
 115              		.loc 1 33 24 is_stmt 0 view .LVU20
 116 000e 0193     		str	r3, [sp, #4]
  34:Core/Src/bsp_dht21.c **** 	#if DHT_PullUp == 1
  35:Core/Src/bsp_dht21.c ****   GPIO_InitStruct.Pull = GPIO_PULLUP;					 
  36:Core/Src/bsp_dht21.c **** 	#else 
  37:Core/Src/bsp_dht21.c ****   GPIO_InitStruct.Pull = GPIO_NOPULL;						 
 117              		.loc 1 37 3 is_stmt 1 view .LVU21
 118              		.loc 1 37 24 is_stmt 0 view .LVU22
 119 0010 0293     		str	r3, [sp, #8]
  38:Core/Src/bsp_dht21.c **** 	#endif
  39:Core/Src/bsp_dht21.c ****   HAL_GPIO_Init(DHT_Port, &GPIO_InitStruct);
 120              		.loc 1 39 3 is_stmt 1 view .LVU23
 121 0012 6946     		mov	r1, sp
 122 0014 0248     		ldr	r0, .L7
 123 0016 FFF7FEFF 		bl	HAL_GPIO_Init
 124              	.LVL2:
  40:Core/Src/bsp_dht21.c **** }
 125              		.loc 1 40 1 is_stmt 0 view .LVU24
 126 001a 05B0     		add	sp, sp, #20
 127              	.LCFI5:
 128              		.cfi_def_cfa_offset 4
 129              		@ sp needed
 130 001c 5DF804FB 		ldr	pc, [sp], #4
 131              	.L8:
 132              		.align	2
 133              	.L7:
 134 0020 00140140 		.word	1073812480
ARM GAS  C:\Users\ADMINI~1\AppData\Local\Temp\ccrmH9ij.s 			page 4


 135              		.cfi_endproc
 136              	.LFE66:
 138              		.global	__aeabi_i2f
 139              		.global	__aeabi_fmul
 140              		.global	__aeabi_ui2f
 141              		.section	.text.DHT_getData,"ax",%progbits
 142              		.align	1
 143              		.global	DHT_getData
 144              		.syntax unified
 145              		.thumb
 146              		.thumb_func
 147              		.fpu softvfp
 149              	DHT_getData:
 150              	.LVL3:
 151              	.LFB67:
  41:Core/Src/bsp_dht21.c **** 
  42:Core/Src/bsp_dht21.c **** DHT_data DHT_getData(DHT_type t) {
 152              		.loc 1 42 34 is_stmt 1 view -0
 153              		.cfi_startproc
 154              		@ args = 0, pretend = 0, frame = 8
 155              		@ frame_needed = 0, uses_anonymous_args = 0
 156              		.loc 1 42 34 is_stmt 0 view .LVU26
 157 0000 2DE9F043 		push	{r4, r5, r6, r7, r8, r9, lr}
 158              	.LCFI6:
 159              		.cfi_def_cfa_offset 28
 160              		.cfi_offset 4, -28
 161              		.cfi_offset 5, -24
 162              		.cfi_offset 6, -20
 163              		.cfi_offset 7, -16
 164              		.cfi_offset 8, -12
 165              		.cfi_offset 9, -8
 166              		.cfi_offset 14, -4
 167 0004 83B0     		sub	sp, sp, #12
 168              	.LCFI7:
 169              		.cfi_def_cfa_offset 40
 170 0006 0746     		mov	r7, r0
 171 0008 8846     		mov	r8, r1
  43:Core/Src/bsp_dht21.c **** 	DHT_data data = {0.0f, 0.0f};
 172              		.loc 1 43 2 is_stmt 1 view .LVU27
 173              		.loc 1 43 11 is_stmt 0 view .LVU28
 174 000a 0023     		movs	r3, #0
 175 000c 0360     		str	r3, [r0]	@ float
 176 000e 4360     		str	r3, [r0, #4]	@ float
  44:Core/Src/bsp_dht21.c ****  
  45:Core/Src/bsp_dht21.c **** 	goToOutput();
 177              		.loc 1 45 2 is_stmt 1 view .LVU29
 178 0010 FFF7FEFF 		bl	goToOutput
 179              	.LVL4:
  46:Core/Src/bsp_dht21.c ****  
  47:Core/Src/bsp_dht21.c **** 	lineDown();
 180              		.loc 1 47 2 view .LVU30
 181 0014 5E4C     		ldr	r4, .L37
 182 0016 0022     		movs	r2, #0
 183 0018 4FF40041 		mov	r1, #32768
 184 001c 2046     		mov	r0, r4
 185 001e FFF7FEFF 		bl	HAL_GPIO_WritePin
 186              	.LVL5:
ARM GAS  C:\Users\ADMINI~1\AppData\Local\Temp\ccrmH9ij.s 			page 5


  48:Core/Src/bsp_dht21.c **** 	Delay(15);
 187              		.loc 1 48 2 view .LVU31
 188 0022 0F20     		movs	r0, #15
 189 0024 FFF7FEFF 		bl	HAL_Delay
 190              	.LVL6:
  49:Core/Src/bsp_dht21.c ****  
  50:Core/Src/bsp_dht21.c **** 	lineUp();
 191              		.loc 1 50 2 view .LVU32
 192 0028 0122     		movs	r2, #1
 193 002a 4FF40041 		mov	r1, #32768
 194 002e 2046     		mov	r0, r4
 195 0030 FFF7FEFF 		bl	HAL_GPIO_WritePin
 196              	.LVL7:
  51:Core/Src/bsp_dht21.c **** 	goToInput();
 197              		.loc 1 51 2 view .LVU33
 198 0034 FFF7FEFF 		bl	goToInput
 199              	.LVL8:
  52:Core/Src/bsp_dht21.c ****  
  53:Core/Src/bsp_dht21.c **** 	uint16_t timeout = 0;
 200              		.loc 1 53 2 view .LVU34
  54:Core/Src/bsp_dht21.c ****  
  55:Core/Src/bsp_dht21.c **** 	while(getLine()) {
 201              		.loc 1 55 2 view .LVU35
  53:Core/Src/bsp_dht21.c ****  
 202              		.loc 1 53 11 is_stmt 0 view .LVU36
 203 0038 0024     		movs	r4, #0
 204              	.LVL9:
 205              	.L10:
 206              		.loc 1 55 7 is_stmt 1 view .LVU37
 207              		.loc 1 55 8 is_stmt 0 view .LVU38
 208 003a 4FF40041 		mov	r1, #32768
 209 003e 5448     		ldr	r0, .L37
 210 0040 FFF7FEFF 		bl	HAL_GPIO_ReadPin
 211              	.LVL10:
 212              		.loc 1 55 7 view .LVU39
 213 0044 0128     		cmp	r0, #1
 214 0046 06D1     		bne	.L30
  56:Core/Src/bsp_dht21.c **** 		timeout++;
 215              		.loc 1 56 3 is_stmt 1 view .LVU40
 216              		.loc 1 56 10 is_stmt 0 view .LVU41
 217 0048 0134     		adds	r4, r4, #1
 218              	.LVL11:
 219              		.loc 1 56 10 view .LVU42
 220 004a A4B2     		uxth	r4, r4
 221              	.LVL12:
  57:Core/Src/bsp_dht21.c **** 		if (timeout > DHT_timeout) return data;
 222              		.loc 1 57 3 is_stmt 1 view .LVU43
 223              		.loc 1 57 6 is_stmt 0 view .LVU44
 224 004c 42F21073 		movw	r3, #10000
 225 0050 9C42     		cmp	r4, r3
 226 0052 F2D9     		bls	.L10
 227 0054 66E0     		b	.L9
 228              	.L30:
  58:Core/Src/bsp_dht21.c **** 	}
  59:Core/Src/bsp_dht21.c **** 	timeout = 0;
 229              		.loc 1 59 10 view .LVU45
 230 0056 0024     		movs	r4, #0
ARM GAS  C:\Users\ADMINI~1\AppData\Local\Temp\ccrmH9ij.s 			page 6


 231              	.LVL13:
 232              	.L13:
  60:Core/Src/bsp_dht21.c ****  
  61:Core/Src/bsp_dht21.c **** 	while(!getLine()) {
 233              		.loc 1 61 7 is_stmt 1 view .LVU46
 234              		.loc 1 61 9 is_stmt 0 view .LVU47
 235 0058 4FF40041 		mov	r1, #32768
 236 005c 4C48     		ldr	r0, .L37
 237 005e FFF7FEFF 		bl	HAL_GPIO_ReadPin
 238              	.LVL14:
 239              		.loc 1 61 7 view .LVU48
 240 0062 0128     		cmp	r0, #1
 241 0064 06D0     		beq	.L31
  62:Core/Src/bsp_dht21.c **** 		timeout++;
 242              		.loc 1 62 3 is_stmt 1 view .LVU49
 243              		.loc 1 62 10 is_stmt 0 view .LVU50
 244 0066 0134     		adds	r4, r4, #1
 245              	.LVL15:
 246              		.loc 1 62 10 view .LVU51
 247 0068 A4B2     		uxth	r4, r4
 248              	.LVL16:
  63:Core/Src/bsp_dht21.c **** 		if (timeout > DHT_timeout) return data;
 249              		.loc 1 63 3 is_stmt 1 view .LVU52
 250              		.loc 1 63 6 is_stmt 0 view .LVU53
 251 006a 42F21073 		movw	r3, #10000
 252 006e 9C42     		cmp	r4, r3
 253 0070 F2D9     		bls	.L13
 254 0072 57E0     		b	.L9
 255              	.L31:
  64:Core/Src/bsp_dht21.c **** 	}
  65:Core/Src/bsp_dht21.c **** 	timeout = 0;
 256              		.loc 1 65 10 view .LVU54
 257 0074 0024     		movs	r4, #0
 258              	.LVL17:
 259              	.L15:
  66:Core/Src/bsp_dht21.c ****  
  67:Core/Src/bsp_dht21.c **** 	while(getLine()) {
 260              		.loc 1 67 7 is_stmt 1 view .LVU55
 261              		.loc 1 67 8 is_stmt 0 view .LVU56
 262 0076 4FF40041 		mov	r1, #32768
 263 007a 4548     		ldr	r0, .L37
 264 007c FFF7FEFF 		bl	HAL_GPIO_ReadPin
 265              	.LVL18:
 266              		.loc 1 67 7 view .LVU57
 267 0080 0128     		cmp	r0, #1
 268 0082 06D1     		bne	.L32
  68:Core/Src/bsp_dht21.c **** 		timeout++;
 269              		.loc 1 68 3 is_stmt 1 view .LVU58
 270              		.loc 1 68 10 is_stmt 0 view .LVU59
 271 0084 0134     		adds	r4, r4, #1
 272              	.LVL19:
 273              		.loc 1 68 10 view .LVU60
 274 0086 A4B2     		uxth	r4, r4
 275              	.LVL20:
  69:Core/Src/bsp_dht21.c **** 		if (timeout > DHT_timeout) return data;
 276              		.loc 1 69 3 is_stmt 1 view .LVU61
 277              		.loc 1 69 6 is_stmt 0 view .LVU62
ARM GAS  C:\Users\ADMINI~1\AppData\Local\Temp\ccrmH9ij.s 			page 7


 278 0088 42F21073 		movw	r3, #10000
 279 008c 9C42     		cmp	r4, r3
 280 008e F2D9     		bls	.L15
 281 0090 48E0     		b	.L9
 282              	.L32:
  70:Core/Src/bsp_dht21.c **** 	}
  71:Core/Src/bsp_dht21.c **** 	
  72:Core/Src/bsp_dht21.c ****  
  73:Core/Src/bsp_dht21.c **** 	uint8_t rawData[5] = {0,0,0,0,0};
 283              		.loc 1 73 2 is_stmt 1 view .LVU63
 284              		.loc 1 73 10 is_stmt 0 view .LVU64
 285 0092 404B     		ldr	r3, .L37+4
 286 0094 93E80300 		ldm	r3, {r0, r1}
 287 0098 0090     		str	r0, [sp]
 288 009a 8DF80410 		strb	r1, [sp, #4]
  74:Core/Src/bsp_dht21.c **** 	for(uint8_t a = 0; a < 5; a++) {
 289              		.loc 1 74 2 is_stmt 1 view .LVU65
 290              	.LBB2:
 291              		.loc 1 74 6 view .LVU66
 292              	.LVL21:
 293              		.loc 1 74 14 is_stmt 0 view .LVU67
 294 009e 4FF00009 		mov	r9, #0
 295              		.loc 1 74 2 view .LVU68
 296 00a2 28E0     		b	.L17
 297              	.LVL22:
 298              	.L18:
 299              	.LBB3:
 300              	.LBB4:
  75:Core/Src/bsp_dht21.c **** 		for(uint8_t b = 7; b != 255; b--) {
  76:Core/Src/bsp_dht21.c **** 			uint32_t hT = 0, lT = 0;
  77:Core/Src/bsp_dht21.c ****  
  78:Core/Src/bsp_dht21.c **** 			while(!getLine()) lT++;
 301              		.loc 1 78 22 is_stmt 1 discriminator 2 view .LVU69
 302              		.loc 1 78 24 is_stmt 0 discriminator 2 view .LVU70
 303 00a4 0134     		adds	r4, r4, #1
 304              	.LVL23:
 305              	.L22:
 306              		.loc 1 78 9 is_stmt 1 discriminator 1 view .LVU71
 307              		.loc 1 78 11 is_stmt 0 discriminator 1 view .LVU72
 308 00a6 4FF40041 		mov	r1, #32768
 309 00aa 3948     		ldr	r0, .L37
 310 00ac FFF7FEFF 		bl	HAL_GPIO_ReadPin
 311              	.LVL24:
 312              		.loc 1 78 9 discriminator 1 view .LVU73
 313 00b0 0128     		cmp	r0, #1
 314 00b2 F7D1     		bne	.L18
  76:Core/Src/bsp_dht21.c ****  
 315              		.loc 1 76 13 view .LVU74
 316 00b4 0025     		movs	r5, #0
 317 00b6 00E0     		b	.L19
 318              	.LVL25:
 319              	.L20:
  79:Core/Src/bsp_dht21.c ****  
  80:Core/Src/bsp_dht21.c **** 			while(getLine()) hT++;
 320              		.loc 1 80 21 is_stmt 1 discriminator 2 view .LVU75
 321              		.loc 1 80 23 is_stmt 0 discriminator 2 view .LVU76
 322 00b8 0135     		adds	r5, r5, #1
ARM GAS  C:\Users\ADMINI~1\AppData\Local\Temp\ccrmH9ij.s 			page 8


 323              	.LVL26:
 324              	.L19:
 325              		.loc 1 80 9 is_stmt 1 discriminator 1 view .LVU77
 326              		.loc 1 80 10 is_stmt 0 discriminator 1 view .LVU78
 327 00ba 4FF40041 		mov	r1, #32768
 328 00be 3448     		ldr	r0, .L37
 329 00c0 FFF7FEFF 		bl	HAL_GPIO_ReadPin
 330              	.LVL27:
 331              		.loc 1 80 9 discriminator 1 view .LVU79
 332 00c4 0128     		cmp	r0, #1
 333 00c6 F7D0     		beq	.L20
  81:Core/Src/bsp_dht21.c ****  
  82:Core/Src/bsp_dht21.c **** 			if(hT > lT) rawData[a] |= (1<<b);
 334              		.loc 1 82 4 is_stmt 1 view .LVU80
 335              		.loc 1 82 6 is_stmt 0 view .LVU81
 336 00c8 A542     		cmp	r5, r4
 337 00ca 0AD9     		bls	.L21
 338              		.loc 1 82 16 is_stmt 1 discriminator 1 view .LVU82
 339              		.loc 1 82 32 is_stmt 0 discriminator 1 view .LVU83
 340 00cc 0123     		movs	r3, #1
 341 00ce 03FA06F2 		lsl	r2, r3, r6
 342              		.loc 1 82 27 discriminator 1 view .LVU84
 343 00d2 02AB     		add	r3, sp, #8
 344 00d4 03EB0901 		add	r1, r3, r9
 345 00d8 11F8083C 		ldrb	r3, [r1, #-8]	@ zero_extendqisi2
 346 00dc 1343     		orrs	r3, r3, r2
 347 00de 01F8083C 		strb	r3, [r1, #-8]
 348              	.L21:
 349              	.LBE4:
  75:Core/Src/bsp_dht21.c **** 			uint32_t hT = 0, lT = 0;
 350              		.loc 1 75 32 is_stmt 1 discriminator 2 view .LVU85
  75:Core/Src/bsp_dht21.c **** 			uint32_t hT = 0, lT = 0;
 351              		.loc 1 75 33 is_stmt 0 discriminator 2 view .LVU86
 352 00e2 013E     		subs	r6, r6, #1
 353              	.LVL28:
  75:Core/Src/bsp_dht21.c **** 			uint32_t hT = 0, lT = 0;
 354              		.loc 1 75 33 discriminator 2 view .LVU87
 355 00e4 F6B2     		uxtb	r6, r6
 356              	.LVL29:
 357              	.L23:
  75:Core/Src/bsp_dht21.c **** 			uint32_t hT = 0, lT = 0;
 358              		.loc 1 75 22 is_stmt 1 discriminator 1 view .LVU88
  75:Core/Src/bsp_dht21.c **** 			uint32_t hT = 0, lT = 0;
 359              		.loc 1 75 3 is_stmt 0 discriminator 1 view .LVU89
 360 00e6 FF2E     		cmp	r6, #255
 361 00e8 01D0     		beq	.L33
 362              	.LBB5:
  76:Core/Src/bsp_dht21.c ****  
 363              		.loc 1 76 21 view .LVU90
 364 00ea 0024     		movs	r4, #0
 365 00ec DBE7     		b	.L22
 366              	.L33:
 367              	.LBE5:
 368              	.LBE3:
  74:Core/Src/bsp_dht21.c **** 		for(uint8_t b = 7; b != 255; b--) {
 369              		.loc 1 74 28 is_stmt 1 discriminator 2 view .LVU91
  74:Core/Src/bsp_dht21.c **** 		for(uint8_t b = 7; b != 255; b--) {
ARM GAS  C:\Users\ADMINI~1\AppData\Local\Temp\ccrmH9ij.s 			page 9


 370              		.loc 1 74 29 is_stmt 0 discriminator 2 view .LVU92
 371 00ee 09F10109 		add	r9, r9, #1
 372              	.LVL30:
  74:Core/Src/bsp_dht21.c **** 		for(uint8_t b = 7; b != 255; b--) {
 373              		.loc 1 74 29 discriminator 2 view .LVU93
 374 00f2 5FFA89F9 		uxtb	r9, r9
 375              	.LVL31:
 376              	.L17:
  74:Core/Src/bsp_dht21.c **** 		for(uint8_t b = 7; b != 255; b--) {
 377              		.loc 1 74 21 is_stmt 1 discriminator 1 view .LVU94
  74:Core/Src/bsp_dht21.c **** 		for(uint8_t b = 7; b != 255; b--) {
 378              		.loc 1 74 2 is_stmt 0 discriminator 1 view .LVU95
 379 00f6 B9F1040F 		cmp	r9, #4
 380 00fa 01D8     		bhi	.L34
 381              	.LBB6:
  75:Core/Src/bsp_dht21.c **** 			uint32_t hT = 0, lT = 0;
 382              		.loc 1 75 15 view .LVU96
 383 00fc 0726     		movs	r6, #7
 384 00fe F2E7     		b	.L23
 385              	.L34:
 386              	.LBE6:
 387              	.LBE2:
  83:Core/Src/bsp_dht21.c **** 		}
  84:Core/Src/bsp_dht21.c **** 	}
  85:Core/Src/bsp_dht21.c ****  
  86:Core/Src/bsp_dht21.c **** 	if((uint8_t)(rawData[0] + rawData[1] + rawData[2] + rawData[3]) == rawData[4]) {
 388              		.loc 1 86 2 is_stmt 1 view .LVU97
 389              		.loc 1 86 22 is_stmt 0 view .LVU98
 390 0100 9DF80050 		ldrb	r5, [sp]	@ zero_extendqisi2
 391              		.loc 1 86 35 view .LVU99
 392 0104 9DF80100 		ldrb	r0, [sp, #1]	@ zero_extendqisi2
 393              		.loc 1 86 26 view .LVU100
 394 0108 2B18     		adds	r3, r5, r0
 395 010a DBB2     		uxtb	r3, r3
 396              		.loc 1 86 48 view .LVU101
 397 010c 9DF80240 		ldrb	r4, [sp, #2]	@ zero_extendqisi2
 398              		.loc 1 86 39 view .LVU102
 399 0110 2344     		add	r3, r3, r4
 400 0112 DBB2     		uxtb	r3, r3
 401              		.loc 1 86 61 view .LVU103
 402 0114 9DF80360 		ldrb	r6, [sp, #3]	@ zero_extendqisi2
 403              		.loc 1 86 5 view .LVU104
 404 0118 3344     		add	r3, r3, r6
 405 011a DBB2     		uxtb	r3, r3
 406              		.loc 1 86 76 view .LVU105
 407 011c 9DF80420 		ldrb	r2, [sp, #4]	@ zero_extendqisi2
 408              		.loc 1 86 4 view .LVU106
 409 0120 9342     		cmp	r3, r2
 410 0122 03D0     		beq	.L35
 411              	.LVL32:
 412              	.L9:
  87:Core/Src/bsp_dht21.c ****  
  88:Core/Src/bsp_dht21.c **** 		if (t == DHT22) {
  89:Core/Src/bsp_dht21.c **** //			RH_value = AM_SensorData[0]*256 + AM_SensorData[1];
  90:Core/Src/bsp_dht21.c ****  			data.hum = (float)(((uint16_t)rawData[0]<<8) | rawData[1])*0.1f;
  91:Core/Src/bsp_dht21.c **** 			 
  92:Core/Src/bsp_dht21.c **** 			if(!(rawData[2] & (1<<7))) {
ARM GAS  C:\Users\ADMINI~1\AppData\Local\Temp\ccrmH9ij.s 			page 10


  93:Core/Src/bsp_dht21.c **** 				data.temp = (float)(((uint16_t)rawData[2]<<8) | rawData[3])*0.1f;
  94:Core/Src/bsp_dht21.c **** 			}	else {
  95:Core/Src/bsp_dht21.c **** 				rawData[2] &= ~(1<<7);
  96:Core/Src/bsp_dht21.c **** 				data.temp = (float)(((uint16_t)rawData[2]<<8) | rawData[3])*-0.1f;
  97:Core/Src/bsp_dht21.c **** 			}
  98:Core/Src/bsp_dht21.c **** 		}
  99:Core/Src/bsp_dht21.c **** 		if (t == DHT11) {
 100:Core/Src/bsp_dht21.c **** 			data.hum = (float)rawData[0];
 101:Core/Src/bsp_dht21.c **** 			data.temp = (float)rawData[2];;
 102:Core/Src/bsp_dht21.c **** 		}
 103:Core/Src/bsp_dht21.c **** 	}
 104:Core/Src/bsp_dht21.c **** 	
 105:Core/Src/bsp_dht21.c **** 	return data;	
 106:Core/Src/bsp_dht21.c **** }
 413              		.loc 1 106 1 view .LVU107
 414 0124 3846     		mov	r0, r7
 415 0126 03B0     		add	sp, sp, #12
 416              	.LCFI8:
 417              		.cfi_remember_state
 418              		.cfi_def_cfa_offset 28
 419              		@ sp needed
 420 0128 BDE8F083 		pop	{r4, r5, r6, r7, r8, r9, pc}
 421              	.LVL33:
 422              	.L35:
 423              	.LCFI9:
 424              		.cfi_restore_state
  88:Core/Src/bsp_dht21.c **** //			RH_value = AM_SensorData[0]*256 + AM_SensorData[1];
 425              		.loc 1 88 3 is_stmt 1 view .LVU108
  88:Core/Src/bsp_dht21.c **** //			RH_value = AM_SensorData[0]*256 + AM_SensorData[1];
 426              		.loc 1 88 6 is_stmt 0 view .LVU109
 427 012c B8F1010F 		cmp	r8, #1
 428 0130 0CD0     		beq	.L36
 429              	.L25:
  99:Core/Src/bsp_dht21.c **** 			data.hum = (float)rawData[0];
 430              		.loc 1 99 3 is_stmt 1 view .LVU110
  99:Core/Src/bsp_dht21.c **** 			data.hum = (float)rawData[0];
 431              		.loc 1 99 6 is_stmt 0 view .LVU111
 432 0132 B8F1000F 		cmp	r8, #0
 433 0136 F5D1     		bne	.L9
 100:Core/Src/bsp_dht21.c **** 			data.temp = (float)rawData[2];;
 434              		.loc 1 100 4 is_stmt 1 view .LVU112
 100:Core/Src/bsp_dht21.c **** 			data.temp = (float)rawData[2];;
 435              		.loc 1 100 15 is_stmt 0 view .LVU113
 436 0138 2846     		mov	r0, r5
 437 013a FFF7FEFF 		bl	__aeabi_ui2f
 438              	.LVL34:
 100:Core/Src/bsp_dht21.c **** 			data.temp = (float)rawData[2];;
 439              		.loc 1 100 13 view .LVU114
 440 013e 3860     		str	r0, [r7]	@ float
 101:Core/Src/bsp_dht21.c **** 		}
 441              		.loc 1 101 4 is_stmt 1 view .LVU115
 101:Core/Src/bsp_dht21.c **** 		}
 442              		.loc 1 101 16 is_stmt 0 view .LVU116
 443 0140 9DF80200 		ldrb	r0, [sp, #2]	@ zero_extendqisi2
 444 0144 FFF7FEFF 		bl	__aeabi_ui2f
 445              	.LVL35:
 101:Core/Src/bsp_dht21.c **** 		}
ARM GAS  C:\Users\ADMINI~1\AppData\Local\Temp\ccrmH9ij.s 			page 11


 446              		.loc 1 101 14 view .LVU117
 447 0148 7860     		str	r0, [r7, #4]	@ float
 101:Core/Src/bsp_dht21.c **** 		}
 448              		.loc 1 101 34 is_stmt 1 view .LVU118
 105:Core/Src/bsp_dht21.c **** }
 449              		.loc 1 105 2 view .LVU119
 105:Core/Src/bsp_dht21.c **** }
 450              		.loc 1 105 9 is_stmt 0 view .LVU120
 451 014a EBE7     		b	.L9
 452              	.L36:
  90:Core/Src/bsp_dht21.c **** 			 
 453              		.loc 1 90 5 is_stmt 1 view .LVU121
  90:Core/Src/bsp_dht21.c **** 			 
 454              		.loc 1 90 16 is_stmt 0 view .LVU122
 455 014c 40EA0520 		orr	r0, r0, r5, lsl #8
 456 0150 FFF7FEFF 		bl	__aeabi_i2f
 457              	.LVL36:
  90:Core/Src/bsp_dht21.c **** 			 
 458              		.loc 1 90 63 view .LVU123
 459 0154 1049     		ldr	r1, .L37+8
 460 0156 FFF7FEFF 		bl	__aeabi_fmul
 461              	.LVL37:
  90:Core/Src/bsp_dht21.c **** 			 
 462              		.loc 1 90 14 view .LVU124
 463 015a 3860     		str	r0, [r7]	@ float
  92:Core/Src/bsp_dht21.c **** 				data.temp = (float)(((uint16_t)rawData[2]<<8) | rawData[3])*0.1f;
 464              		.loc 1 92 4 is_stmt 1 view .LVU125
  92:Core/Src/bsp_dht21.c **** 				data.temp = (float)(((uint16_t)rawData[2]<<8) | rawData[3])*0.1f;
 465              		.loc 1 92 6 is_stmt 0 view .LVU126
 466 015c 14F0800F 		tst	r4, #128
 467 0160 08D1     		bne	.L26
  93:Core/Src/bsp_dht21.c **** 			}	else {
 468              		.loc 1 93 5 is_stmt 1 view .LVU127
  93:Core/Src/bsp_dht21.c **** 			}	else {
 469              		.loc 1 93 17 is_stmt 0 view .LVU128
 470 0162 46EA0420 		orr	r0, r6, r4, lsl #8
 471 0166 FFF7FEFF 		bl	__aeabi_i2f
 472              	.LVL38:
  93:Core/Src/bsp_dht21.c **** 			}	else {
 473              		.loc 1 93 64 view .LVU129
 474 016a 0B49     		ldr	r1, .L37+8
 475 016c FFF7FEFF 		bl	__aeabi_fmul
 476              	.LVL39:
  93:Core/Src/bsp_dht21.c **** 			}	else {
 477              		.loc 1 93 15 view .LVU130
 478 0170 7860     		str	r0, [r7, #4]	@ float
 479 0172 DEE7     		b	.L25
 480              	.L26:
  95:Core/Src/bsp_dht21.c **** 				data.temp = (float)(((uint16_t)rawData[2]<<8) | rawData[3])*-0.1f;
 481              		.loc 1 95 5 is_stmt 1 view .LVU131
  95:Core/Src/bsp_dht21.c **** 				data.temp = (float)(((uint16_t)rawData[2]<<8) | rawData[3])*-0.1f;
 482              		.loc 1 95 16 is_stmt 0 view .LVU132
 483 0174 04F07F00 		and	r0, r4, #127
 484 0178 8DF80200 		strb	r0, [sp, #2]
  96:Core/Src/bsp_dht21.c **** 			}
 485              		.loc 1 96 5 is_stmt 1 view .LVU133
  96:Core/Src/bsp_dht21.c **** 			}
ARM GAS  C:\Users\ADMINI~1\AppData\Local\Temp\ccrmH9ij.s 			page 12


 486              		.loc 1 96 17 is_stmt 0 view .LVU134
 487 017c 46EA0020 		orr	r0, r6, r0, lsl #8
 488 0180 FFF7FEFF 		bl	__aeabi_i2f
 489              	.LVL40:
  96:Core/Src/bsp_dht21.c **** 			}
 490              		.loc 1 96 64 view .LVU135
 491 0184 0549     		ldr	r1, .L37+12
 492 0186 FFF7FEFF 		bl	__aeabi_fmul
 493              	.LVL41:
  96:Core/Src/bsp_dht21.c **** 			}
 494              		.loc 1 96 15 view .LVU136
 495 018a 7860     		str	r0, [r7, #4]	@ float
 496 018c D1E7     		b	.L25
 497              	.L38:
 498 018e 00BF     		.align	2
 499              	.L37:
 500 0190 00140140 		.word	1073812480
 501 0194 00000000 		.word	.LANCHOR0
 502 0198 CDCCCC3D 		.word	1036831949
 503 019c CDCCCCBD 		.word	-1110651699
 504              		.cfi_endproc
 505              	.LFE67:
 507              		.section	.rodata
 508              		.align	2
 509              		.set	.LANCHOR0,. + 0
 510              	.LC0:
 511 0000 00000000 		.ascii	"\000\000\000\000\000"
 511      00
 512              		.text
 513              	.Letext0:
 514              		.file 2 "c:\\users\\administrator\\.vscode\\extensions\\buzzyelectronics.stm-helper-1.2.9\\armgcc\
 515              		.file 3 "c:\\users\\administrator\\.vscode\\extensions\\buzzyelectronics.stm-helper-1.2.9\\armgcc\
 516              		.file 4 "Drivers/CMSIS/Include/core_cm3.h"
 517              		.file 5 "Drivers/CMSIS/Device/ST/STM32F1xx/Include/system_stm32f1xx.h"
 518              		.file 6 "Drivers/CMSIS/Device/ST/STM32F1xx/Include/stm32f103xe.h"
 519              		.file 7 "Drivers/STM32F1xx_HAL_Driver/Inc/stm32f1xx_hal_gpio.h"
 520              		.file 8 "Drivers/STM32F1xx_HAL_Driver/Inc/stm32f1xx_hal.h"
 521              		.file 9 "Core/Inc/bsp_dht21.h"
ARM GAS  C:\Users\ADMINI~1\AppData\Local\Temp\ccrmH9ij.s 			page 13

